target datalayout = "e-m:e-p270:32:32-p271:32:32-p272:64:64-i64:64-i128:128-f80:128-n8:16:32:64-S128"
target triple = "x86_64-pc-linux-gnu"

%struct.strbuf = type { i64, i64, ptr }

@.str.22 = private unnamed_addr constant [32 x i8] c"unable to write to cache daemon\00", align 1
@.str.23 = private unnamed_addr constant [29 x i8] c"read error from cache daemon\00", align 1

; Function Attrs: nounwind uwtable
define internal i32 @connection_closed(i32 noundef %0) #0 {
  %2 = alloca i32, align 4
  store i32 %0, ptr %2, align 4, !tbaa !4
  %3 = load i32, ptr %2, align 4, !tbaa !4
  %4 = icmp eq i32 %3, 104
  br i1 %4, label %8, label %5

5:                                                ; preds = %1
  %6 = load i32, ptr %2, align 4, !tbaa !4
  %7 = icmp eq i32 %6, 103
  br label %8

8:                                                ; preds = %5, %1
  %9 = phi i1 [ true, %1 ], [ %7, %5 ]
  %10 = zext i1 %9 to i32
  ret i32 %10
}

; Function Attrs: nounwind uwtable
define internal i32 @send_request(ptr noundef %0, ptr noundef %1) #0 {
  %3 = alloca i32, align 4
  %4 = alloca ptr, align 8
  %5 = alloca ptr, align 8
  %6 = alloca i32, align 4
  %7 = alloca i32, align 4
  %8 = alloca i32, align 4
  %9 = alloca [1024 x i8], align 16
  %10 = alloca i32, align 4
  store ptr %0, ptr %4, align 8, !tbaa !11
  store ptr %1, ptr %5, align 8, !tbaa !35
  call void @llvm.lifetime.start.p0(i64 4, ptr %6) #10
  store i32 0, ptr %6, align 4, !tbaa !4
  call void @llvm.lifetime.start.p0(i64 4, ptr %7) #10
  %11 = load ptr, ptr %4, align 8, !tbaa !11
  %12 = call i32 @unix_stream_connect(ptr noundef %11, i32 noundef 0)
  store i32 %12, ptr %7, align 4, !tbaa !4
  %13 = load i32, ptr %7, align 4, !tbaa !4
  %14 = icmp slt i32 %13, 0
  br i1 %14, label %15, label %16

15:                                               ; preds = %2
  store i32 -1, ptr %3, align 4
  store i32 1, ptr %8, align 4
  br label %62

16:                                               ; preds = %2
  %17 = load i32, ptr %7, align 4, !tbaa !4
  %18 = load ptr, ptr %5, align 8, !tbaa !35
  %19 = getelementptr inbounds nuw %struct.strbuf, ptr %18, i32 0, i32 2
  %20 = load ptr, ptr %19, align 8, !tbaa !37
  %21 = load ptr, ptr %5, align 8, !tbaa !35
  %22 = getelementptr inbounds nuw %struct.strbuf, ptr %21, i32 0, i32 1
  %23 = load i64, ptr %22, align 8, !tbaa !39
  %24 = call i64 @write_in_full(i32 noundef %17, ptr noundef %20, i64 noundef %23)
  %25 = icmp slt i64 %24, 0
  br i1 %25, label %26, label %27

26:                                               ; preds = %16
  call void (ptr, ...) @die_errno(ptr noundef @.str.22) #11
  unreachable

27:                                               ; preds = %16
  %28 = load i32, ptr %7, align 4, !tbaa !4
  %29 = call i32 @shutdown(i32 noundef %28, i32 noundef 1) #10
  br label %30

30:                                               ; preds = %57, %27
  br label %31

31:                                               ; preds = %30
  call void @llvm.lifetime.start.p0(i64 1024, ptr %9) #10
  call void @llvm.lifetime.start.p0(i64 4, ptr %10) #10
  %32 = load i32, ptr %7, align 4, !tbaa !4
  %33 = getelementptr inbounds [1024 x i8], ptr %9, i64 0, i64 0
  %34 = call i64 @read_in_full(i32 noundef %32, ptr noundef %33, i64 noundef 1024)
  %35 = trunc i64 %34 to i32
  store i32 %35, ptr %10, align 4, !tbaa !4
  %36 = load i32, ptr %10, align 4, !tbaa !4
  %37 = icmp eq i32 %36, 0
  br i1 %37, label %46, label %38

38:                                               ; preds = %31
  %39 = load i32, ptr %10, align 4, !tbaa !4
  %40 = icmp slt i32 %39, 0
  br i1 %40, label %41, label %47

41:                                               ; preds = %38
  %42 = call ptr @__errno_location() #13
  %43 = load i32, ptr %42, align 4, !tbaa !4
  %44 = call i32 @connection_closed(i32 noundef %43)
  %45 = icmp ne i32 %44, 0
  br i1 %45, label %46, label %47

46:                                               ; preds = %41, %31
  store i32 3, ptr %8, align 4
  br label %55

47:                                               ; preds = %41, %38
  %48 = load i32, ptr %10, align 4, !tbaa !4
  %49 = icmp slt i32 %48, 0
  br i1 %49, label %50, label %51

50:                                               ; preds = %47
  call void (ptr, ...) @die_errno(ptr noundef @.str.23) #11
  unreachable

51:                                               ; preds = %47
  %52 = getelementptr inbounds [1024 x i8], ptr %9, i64 0, i64 0
  %53 = load i32, ptr %10, align 4, !tbaa !4
  %54 = sext i32 %53 to i64
  call void @write_or_die(i32 noundef 1, ptr noundef %52, i64 noundef %54)
  store i32 1, ptr %6, align 4, !tbaa !4
  store i32 0, ptr %8, align 4
  br label %55

55:                                               ; preds = %51, %46
  call void @llvm.lifetime.end.p0(i64 4, ptr %10) #10
  call void @llvm.lifetime.end.p0(i64 1024, ptr %9) #10
  %56 = load i32, ptr %8, align 4
  switch i32 %56, label %64 [
    i32 0, label %57
    i32 3, label %58
  ]

57:                                               ; preds = %55
  br label %30

58:                                               ; preds = %55
  %59 = load i32, ptr %7, align 4, !tbaa !4
  %60 = call i32 @close(i32 noundef %59)
  %61 = load i32, ptr %6, align 4, !tbaa !4
  store i32 %61, ptr %3, align 4
  store i32 1, ptr %8, align 4
  br label %62

62:                                               ; preds = %58, %15
  call void @llvm.lifetime.end.p0(i64 4, ptr %7) #10
  call void @llvm.lifetime.end.p0(i64 4, ptr %6) #10
  %63 = load i32, ptr %3, align 4
  ret i32 %63

64:                                               ; preds = %55
  unreachable
}