; Function Attrs: nounwind uwtable
define internal fastcc range(i32 -1, 2) i32 @send_request(ptr noundef nonnull %0, ptr noundef nonnull readonly captures(none) %1) unnamed_addr #0 {
  %3 = alloca [1024 x i8], align 16
  %4 = tail call i32 @unix_stream_connect(ptr noundef nonnull %0, i32 noundef 0) #12
  %5 = icmp slt i32 %4, 0
  br i1 %5, label %32, label %6

6:                                                ; preds = %2
  %7 = getelementptr inbounds nuw i8, ptr %1, i64 16
  %8 = load ptr, ptr %7, align 8, !tbaa !28
  %9 = getelementptr inbounds nuw i8, ptr %1, i64 8
  %10 = load i64, ptr %9, align 8, !tbaa !30
  %11 = tail call i64 @write_in_full(i32 noundef %4, ptr noundef %8, i64 noundef %10) #12
  %12 = icmp slt i64 %11, 0
  br i1 %12, label %13, label %14

13:                                               ; preds = %6
  tail call void (ptr, ...) @die_errno(ptr noundef nonnull @.str.22) #13
  unreachable

14:                                               ; preds = %6
  %15 = tail call i32 @shutdown(i32 noundef %4, i32 noundef 1) #12
  call void @llvm.lifetime.start.p0(i64 1024, ptr nonnull %3) #12
  %16 = call i64 @read_in_full(i32 noundef %4, ptr noundef nonnull %3, i64 noundef 1024) #12
  %17 = trunc i64 %16 to i32
  %18 = icmp eq i32 %17, 0
  br i1 %18, label %.loopexit, label %.lr.ph.preheader

.lr.ph.preheader:                                 ; preds = %14
  %19 = icmp slt i32 %17, 0
  br i1 %19, label %.lr.ph._crit_edge, label %.lr.ph28

.lr.ph:                                           ; preds = %.lr.ph28
  %20 = icmp slt i32 %29, 0
  br i1 %20, label %.lr.ph._crit_edge, label %.lr.ph28

.lr.ph._crit_edge:                                ; preds = %.lr.ph, %.lr.ph.preheader
  %.01524.lcssa = phi i32 [ 0, %.lr.ph.preheader ], [ 1, %.lr.ph ]
  %21 = tail call ptr @__errno_location() #15
  %22 = load i32, ptr %21, align 4, !tbaa !9
  %23 = add i32 %22, -105
  %24 = icmp ult i32 %23, -2
  br i1 %24, label %25, label %.loopexit

25:                                               ; preds = %.lr.ph._crit_edge
  call void (ptr, ...) @die_errno(ptr noundef nonnull @.str.23) #13
  unreachable

.lr.ph28:                                         ; preds = %.lr.ph.preheader, %.lr.ph
  %26 = phi i64 [ %28, %.lr.ph ], [ %16, %.lr.ph.preheader ]
  %27 = and i64 %26, 2147483647
  call void @write_or_die(i32 noundef 1, ptr noundef nonnull %3, i64 noundef %27) #12
  call void @llvm.lifetime.end.p0(i64 1024, ptr nonnull %3) #12
  call void @llvm.lifetime.start.p0(i64 1024, ptr nonnull %3) #12
  %28 = call i64 @read_in_full(i32 noundef %4, ptr noundef nonnull %3, i64 noundef 1024) #12
  %29 = trunc i64 %28 to i32
  %30 = icmp eq i32 %29, 0
  br i1 %30, label %.loopexit, label %.lr.ph

.loopexit:                                        ; preds = %.lr.ph28, %14, %.lr.ph._crit_edge
  %.01523 = phi i32 [ %.01524.lcssa, %.lr.ph._crit_edge ], [ 0, %14 ], [ 1, %.lr.ph28 ]
  call void @llvm.lifetime.end.p0(i64 1024, ptr nonnull %3) #12
  %31 = call i32 @close(i32 noundef %4) #12
  br label %32

32:                                               ; preds = %2, %.loopexit
  %.0 = phi i32 [ %.01523, %.loopexit ], [ -1, %2 ]
  ret i32 %.0
}